; Function Attrs: mustprogress uwtable
define void @_ZNK6icu_7521TimeZoneNamesDelegate15getDisplayNamesERKNS_13UnicodeStringEPK17UTimeZoneNameTypeidPS1_R10UErrorCode(ptr nocapture noundef nonnull readonly align 8 dereferenceable(16) %this, ptr noundef nonnull align 8 dereferenceable(64) %tzID, ptr noundef %types, i32 noundef %numTypes, double noundef %date, ptr noundef %dest, ptr noundef nonnull align 4 dereferenceable(4) %status) unnamed_addr #1 align 2 {
entry:
  %fTZnamesCacheEntry = getelementptr inbounds i8, ptr %this, i64 8
  %0 = load ptr, ptr %fTZnamesCacheEntry, align 8
  %1 = load ptr, ptr %0, align 8
  %vtable = load ptr, ptr %1, align 8
  %vfn = getelementptr inbounds i8, ptr %vtable, i64 112
  %2 = load ptr, ptr %vfn, align 8
  tail call void %2(ptr noundef nonnull align 8 dereferenceable(8) %1, ptr noundef nonnull align 8 dereferenceable(64) %tzID, ptr noundef %types, i32 noundef %numTypes, double noundef %date, ptr noundef %dest, ptr noundef nonnull align 4 dereferenceable(4) %status)
  ret void
}